; Function Attrs: nounwind uwtable
define noundef ptr @l___private_Lean_Meta_Tactic_Grind_Arith_CommRing_Poly_0__Lean_Grind_CommRing_Mon_lcm_match__1_splitter___rarg___boxed(ptr noundef %0, ptr noundef %1, ptr noundef %2, ptr noundef %3) #1 {
  %5 = ptrtoint ptr %0 to i64
  %6 = lshr i64 %5, 1
  %7 = trunc i64 %6 to i8
  %8 = and i64 %5, 1
  %.not = icmp eq i64 %8, 0
  br i1 %.not, label %9, label %lean_dec.exit11

9:                                                ; preds = %4
  %10 = load i32, ptr %0, align 4, !tbaa !10
  %11 = icmp sgt i32 %10, 1
  br i1 %11, label %12, label %14, !prof !5

12:                                               ; preds = %9
  %13 = add nsw i32 %10, -1
  store i32 %13, ptr %0, align 4, !tbaa !10
  br label %lean_dec.exit11

14:                                               ; preds = %9
  %.not.i = icmp eq i32 %10, 0
  br i1 %.not.i, label %lean_dec.exit11, label %15

15:                                               ; preds = %14
  tail call void @lean_dec_ref_cold(ptr noundef nonnull %0) #6
  br label %lean_dec.exit11

lean_dec.exit11:                                  ; preds = %15, %14, %12, %4
  switch i8 %7, label %34 [
    i8 0, label %16
    i8 1, label %25
  ]

16:                                               ; preds = %lean_dec.exit11
  %17 = ptrtoint ptr %2 to i64
  %18 = and i64 %17, 1
  %.not15.i = icmp eq i64 %18, 0
  br i1 %.not15.i, label %19, label %l___private_Lean_Meta_Tactic_Grind_Arith_CommRing_Poly_0__Lean_Grind_CommRing_Mon_lcm_match__1_splitter___rarg.exit

19:                                               ; preds = %16
  %.val.i.i = load i32, ptr %2, align 4, !tbaa !10
  %20 = icmp sgt i32 %.val.i.i, 0
  br i1 %20, label %21, label %23, !prof !5

21:                                               ; preds = %19
  %22 = add nuw i32 %.val.i.i, 1
  store i32 %22, ptr %2, align 4, !tbaa !10
  br label %l___private_Lean_Meta_Tactic_Grind_Arith_CommRing_Poly_0__Lean_Grind_CommRing_Mon_lcm_match__1_splitter___rarg.exit

23:                                               ; preds = %19
  %.not.i.i = icmp eq i32 %.val.i.i, 0
  br i1 %.not.i.i, label %l___private_Lean_Meta_Tactic_Grind_Arith_CommRing_Poly_0__Lean_Grind_CommRing_Mon_lcm_match__1_splitter___rarg.exit, label %24

24:                                               ; preds = %23
  tail call void @lean_inc_ref_cold(ptr noundef nonnull %2) #6
  br label %l___private_Lean_Meta_Tactic_Grind_Arith_CommRing_Poly_0__Lean_Grind_CommRing_Mon_lcm_match__1_splitter___rarg.exit

25:                                               ; preds = %lean_dec.exit11
  %26 = ptrtoint ptr %1 to i64
  %27 = and i64 %26, 1
  %.not.i18 = icmp eq i64 %27, 0
  br i1 %.not.i18, label %28, label %l___private_Lean_Meta_Tactic_Grind_Arith_CommRing_Poly_0__Lean_Grind_CommRing_Mon_lcm_match__1_splitter___rarg.exit

28:                                               ; preds = %25
  %.val.i9.i = load i32, ptr %1, align 4, !tbaa !10
  %29 = icmp sgt i32 %.val.i9.i, 0
  br i1 %29, label %30, label %32, !prof !5

30:                                               ; preds = %28
  %31 = add nuw i32 %.val.i9.i, 1
  store i32 %31, ptr %1, align 4, !tbaa !10
  br label %l___private_Lean_Meta_Tactic_Grind_Arith_CommRing_Poly_0__Lean_Grind_CommRing_Mon_lcm_match__1_splitter___rarg.exit

32:                                               ; preds = %28
  %.not.i10.i = icmp eq i32 %.val.i9.i, 0
  br i1 %.not.i10.i, label %l___private_Lean_Meta_Tactic_Grind_Arith_CommRing_Poly_0__Lean_Grind_CommRing_Mon_lcm_match__1_splitter___rarg.exit, label %33

33:                                               ; preds = %32
  tail call void @lean_inc_ref_cold(ptr noundef nonnull %1) #6
  br label %l___private_Lean_Meta_Tactic_Grind_Arith_CommRing_Poly_0__Lean_Grind_CommRing_Mon_lcm_match__1_splitter___rarg.exit

34:                                               ; preds = %lean_dec.exit11
  %35 = ptrtoint ptr %3 to i64
  %36 = and i64 %35, 1
  %.not16.i = icmp eq i64 %36, 0
  br i1 %.not16.i, label %37, label %l___private_Lean_Meta_Tactic_Grind_Arith_CommRing_Poly_0__Lean_Grind_CommRing_Mon_lcm_match__1_splitter___rarg.exit

37:                                               ; preds = %34
  %.val.i12.i = load i32, ptr %3, align 4, !tbaa !10
  %38 = icmp sgt i32 %.val.i12.i, 0
  br i1 %38, label %39, label %41, !prof !5

39:                                               ; preds = %37
  %40 = add nuw i32 %.val.i12.i, 1
  store i32 %40, ptr %3, align 4, !tbaa !10
  br label %l___private_Lean_Meta_Tactic_Grind_Arith_CommRing_Poly_0__Lean_Grind_CommRing_Mon_lcm_match__1_splitter___rarg.exit

41:                                               ; preds = %37
  %.not.i13.i = icmp eq i32 %.val.i12.i, 0
  br i1 %.not.i13.i, label %l___private_Lean_Meta_Tactic_Grind_Arith_CommRing_Poly_0__Lean_Grind_CommRing_Mon_lcm_match__1_splitter___rarg.exit, label %42

42:                                               ; preds = %41
  tail call void @lean_inc_ref_cold(ptr noundef nonnull %3) #6
  br label %l___private_Lean_Meta_Tactic_Grind_Arith_CommRing_Poly_0__Lean_Grind_CommRing_Mon_lcm_match__1_splitter___rarg.exit

l___private_Lean_Meta_Tactic_Grind_Arith_CommRing_Poly_0__Lean_Grind_CommRing_Mon_lcm_match__1_splitter___rarg.exit: ; preds = %16, %21, %23, %24, %25, %30, %32, %33, %34, %39, %41, %42
  %.0.i = phi ptr [ %2, %24 ], [ %2, %23 ], [ %2, %21 ], [ %2, %16 ], [ %1, %33 ], [ %1, %32 ], [ %1, %30 ], [ %1, %25 ], [ %3, %42 ], [ %3, %41 ], [ %3, %39 ], [ %3, %34 ]
  %43 = ptrtoint ptr %3 to i64
  %44 = and i64 %43, 1
  %.not19 = icmp eq i64 %44, 0
  br i1 %.not19, label %45, label %lean_dec.exit10

45:                                               ; preds = %l___private_Lean_Meta_Tactic_Grind_Arith_CommRing_Poly_0__Lean_Grind_CommRing_Mon_lcm_match__1_splitter___rarg.exit
  %46 = load i32, ptr %3, align 4, !tbaa !10
  %47 = icmp sgt i32 %46, 1
  br i1 %47, label %48, label %50, !prof !5

48:                                               ; preds = %45
  %49 = add nsw i32 %46, -1
  store i32 %49, ptr %3, align 4, !tbaa !10
  br label %lean_dec.exit10

50:                                               ; preds = %45
  %.not.i12 = icmp eq i32 %46, 0
  br i1 %.not.i12, label %lean_dec.exit10, label %51

51:                                               ; preds = %50
  tail call void @lean_dec_ref_cold(ptr noundef nonnull %3) #6
  br label %lean_dec.exit10

lean_dec.exit10:                                  ; preds = %51, %50, %48, %l___private_Lean_Meta_Tactic_Grind_Arith_CommRing_Poly_0__Lean_Grind_CommRing_Mon_lcm_match__1_splitter___rarg.exit
  %52 = ptrtoint ptr %2 to i64
  %53 = and i64 %52, 1
  %.not20 = icmp eq i64 %53, 0
  br i1 %.not20, label %54, label %lean_dec.exit9

54:                                               ; preds = %lean_dec.exit10
  %55 = load i32, ptr %2, align 4, !tbaa !10
  %56 = icmp sgt i32 %55, 1
  br i1 %56, label %57, label %59, !prof !5

57:                                               ; preds = %54
  %58 = add nsw i32 %55, -1
  store i32 %58, ptr %2, align 4, !tbaa !10
  br label %lean_dec.exit9

59:                                               ; preds = %54
  %.not.i14 = icmp eq i32 %55, 0
  br i1 %.not.i14, label %lean_dec.exit9, label %60

60:                                               ; preds = %59
  tail call void @lean_dec_ref_cold(ptr noundef nonnull %2) #6
  br label %lean_dec.exit9

lean_dec.exit9:                                   ; preds = %60, %59, %57, %lean_dec.exit10
  %61 = ptrtoint ptr %1 to i64
  %62 = and i64 %61, 1
  %.not21 = icmp eq i64 %62, 0
  br i1 %.not21, label %63, label %lean_dec.exit

63:                                               ; preds = %lean_dec.exit9
  %64 = load i32, ptr %1, align 4, !tbaa !10
  %65 = icmp sgt i32 %64, 1
  br i1 %65, label %66, label %68, !prof !5

66:                                               ; preds = %63
  %67 = add nsw i32 %64, -1
  store i32 %67, ptr %1, align 4, !tbaa !10
  br label %lean_dec.exit

68:                                               ; preds = %63
  %.not.i16 = icmp eq i32 %64, 0
  br i1 %.not.i16, label %lean_dec.exit, label %69

69:                                               ; preds = %68
  tail call void @lean_dec_ref_cold(ptr noundef nonnull %1) #6
  br label %lean_dec.exit

lean_dec.exit:                                    ; preds = %69, %68, %66, %lean_dec.exit9
  ret ptr %.0.i
}